target datalayout = "e-m:e-p270:32:32-p271:32:32-p272:64:64-i64:64-i128:128-f80:128-n8:16:32:64-S128"
target triple = "x86_64-pc-linux-gnu"

@.str = private unnamed_addr constant [101 x i8] c"generated/home/dtcxzyw/WorkSpace/Projects/compilers/llvm-opt-benchmark/bench/hdf5/hdf5/src/H5EAint.c\00", align 1
@__func__.H5EA__create_flush_depend = private unnamed_addr constant [26 x i8] c"H5EA__create_flush_depend\00", align 1
@H5E_EARRAY_g = external global i64, align 8
@H5E_CANTDEPEND_g = external global i64, align 8
@.str.1 = private unnamed_addr constant [34 x i8] c"unable to create flush dependency\00", align 1
@__func__.H5EA__destroy_flush_depend = private unnamed_addr constant [27 x i8] c"H5EA__destroy_flush_depend\00", align 1
@H5E_CANTUNDEPEND_g = external global i64, align 8
@.str.2 = private unnamed_addr constant [35 x i8] c"unable to destroy flush dependency\00", align 1

; Function Attrs: nounwind uwtable
define i32 @H5EA__create_flush_depend(ptr noundef %0, ptr noundef %1) #0 {
  %3 = alloca ptr, align 8
  %4 = alloca ptr, align 8
  %5 = alloca i32, align 4
  %6 = alloca i8, align 1
  store ptr %0, ptr %3, align 8
  store ptr %1, ptr %4, align 8
  store i32 0, ptr %5, align 4
  store i8 0, ptr %6, align 1
  %7 = load ptr, ptr %3, align 8
  %8 = load ptr, ptr %4, align 8
  %9 = call i32 @H5AC_create_flush_dependency(ptr noundef %7, ptr noundef %8)
  %10 = icmp slt i32 %9, 0
  br i1 %10, label %11, label %26

11:                                               ; preds = %2
  br label %12

12:                                               ; preds = %11
  br label %13

13:                                               ; preds = %12
  br label %14

14:                                               ; preds = %13
  %15 = load i64, ptr @H5E_EARRAY_g, align 8
  %16 = load i64, ptr @H5E_CANTDEPEND_g, align 8
  %17 = call i32 (ptr, ptr, i32, i64, i64, ptr, ...) @H5E_printf_stack(ptr noundef @.str, ptr noundef @__func__.H5EA__create_flush_depend, i32 noundef 89, i64 noundef %15, i64 noundef %16, ptr noundef @.str.1)
  br label %18

18:                                               ; preds = %14
  store i8 1, ptr %6, align 1
  %19 = load i8, ptr %6, align 1
  %20 = trunc i8 %19 to i1
  %21 = zext i1 %20 to i8
  store i8 %21, ptr %6, align 1
  br label %22

22:                                               ; preds = %18
  br label %23

23:                                               ; preds = %22
  store i32 -1, ptr %5, align 4
  br label %27

24:                                               ; No predecessors!
  br label %25

25:                                               ; preds = %24
  br label %26

26:                                               ; preds = %25, %2
  br label %27

27:                                               ; preds = %26, %23
  %28 = load i32, ptr %5, align 4
  ret i32 %28
}

declare i32 @H5AC_create_flush_dependency(ptr noundef, ptr noundef) #1

declare i32 @H5E_printf_stack(ptr noundef, ptr noundef, i32 noundef, i64 noundef, i64 noundef, ptr noundef, ...) #1

; Function Attrs: nounwind uwtable
define i32 @H5EA__destroy_flush_depend(ptr noundef %0, ptr noundef %1) #0 {
  %3 = alloca ptr, align 8
  %4 = alloca ptr, align 8
  %5 = alloca i32, align 4
  %6 = alloca i8, align 1
  store ptr %0, ptr %3, align 8
  store ptr %1, ptr %4, align 8
  store i32 0, ptr %5, align 4
  store i8 0, ptr %6, align 1
  %7 = load ptr, ptr %3, align 8
  %8 = load ptr, ptr %4, align 8
  %9 = call i32 @H5AC_destroy_flush_dependency(ptr noundef %7, ptr noundef %8)
  %10 = icmp slt i32 %9, 0
  br i1 %10, label %11, label %26

11:                                               ; preds = %2
  br label %12

12:                                               ; preds = %11
  br label %13

13:                                               ; preds = %12
  br label %14

14:                                               ; preds = %13
  %15 = load i64, ptr @H5E_EARRAY_g, align 8
  %16 = load i64, ptr @H5E_CANTUNDEPEND_g, align 8
  %17 = call i32 (ptr, ptr, i32, i64, i64, ptr, ...) @H5E_printf_stack(ptr noundef @.str, ptr noundef @__func__.H5EA__destroy_flush_depend, i32 noundef 117, i64 noundef %15, i64 noundef %16, ptr noundef @.str.2)
  br label %18

18:                                               ; preds = %14
  store i8 1, ptr %6, align 1
  %19 = load i8, ptr %6, align 1
  %20 = trunc i8 %19 to i1
  %21 = zext i1 %20 to i8
  store i8 %21, ptr %6, align 1
  br label %22

22:                                               ; preds = %18
  br label %23

23:                                               ; preds = %22
  store i32 -1, ptr %5, align 4
  br label %27

24:                                               ; No predecessors!
  br label %25

25:                                               ; preds = %24
  br label %26

26:                                               ; preds = %25, %2
  br label %27

27:                                               ; preds = %26, %23
  %28 = load i32, ptr %5, align 4
  ret i32 %28
}

declare i32 @H5AC_destroy_flush_dependency(ptr noundef, ptr noundef) #1


!llvm.module.flags = !{!0, !1, !2, !3}

!0 = !{i32 1, !"wchar_size", i32 4}
!1 = !{i32 8, !"PIC Level", i32 2}
!2 = !{i32 7, !"uwtable", i32 2}
!3 = !{i32 7, !"frame-pointer", i32 2}
